EXPORTS 
	??_R0?AV?$_Iosb@H@std@@@8 	 DATA
	??_R0?AV?$basic_filebuf@DU?$char_traits@D@std@@@std@@@8 	 DATA
	??_R0?AV?$basic_ifstream@DU?$char_traits@D@std@@@std@@@8 	 DATA
	??_R0?AV?$basic_ios@DU?$char_traits@D@std@@@std@@@8 	 DATA
	??_R0?AV?$basic_iostream@DU?$char_traits@D@std@@@std@@@8 	 DATA
	??_R0?AV?$basic_istream@DU?$char_traits@D@std@@@std@@@8 	 DATA
	??_R0?AV?$basic_ofstream@DU?$char_traits@D@std@@@std@@@8 	 DATA
	??_R0?AV?$basic_ostream@DU?$char_traits@D@std@@@std@@@8 	 DATA
	??_R0?AV?$basic_streambuf@DU?$char_traits@D@std@@@std@@@8 	 DATA
	??_R0?AV?$basic_stringbuf@DU?$char_traits@D@std@@V?$allocator@D@2@@std@@@8 	 DATA
	??_R0?AV?$basic_stringstream@DU?$char_traits@D@std@@V?$allocator@D@2@@std@@@8 	 DATA
	??_R0?AVbad_alloc@std@@@8 	 DATA
	??_R0?AVbad_array_new_length@std@@@8 	 DATA
	??_R0?AVbad_cast@std@@@8 	 DATA
	??_R0?AVexception@std@@@8 	 DATA
	??_R0?AVios_base@std@@@8 	 DATA
	??_R0?AVruntime_error@std@@@8 	 DATA
	?Separator@CDirEntry@zipper@@2V?$basic_string@DU?$char_traits@D@std@@V?$allocator@D@2@@std@@B 	 DATA
	?_Psave@?$_Facetptr@V?$codecvt@DDU_Mbstatet@@@std@@@std@@2PBVfacet@locale@2@B 	 DATA
	?_Stinit@?1??_Init@?$basic_filebuf@DU?$char_traits@D@std@@@std@@IAEXPAU_iobuf@@W4_Initfl@23@@Z@4U_Mbstatet@@A 	 DATA
	??$?6DU?$char_traits@D@std@@V?$allocator@D@1@@std@@YAAAV?$basic_ostream@DU?$char_traits@D@std@@@0@AAV10@ABV?$basic_string@DU?$char_traits@D@std@@V?$allocator@D@2@@0@@Z
	??$?6U?$char_traits@D@std@@@std@@YAAAV?$basic_ostream@DU?$char_traits@D@std@@@0@AAV10@PBD@Z
	??$?8DU?$char_traits@D@std@@V?$allocator@D@1@@std@@YA_NABV?$basic_string@DU?$char_traits@D@std@@V?$allocator@D@2@@0@0@Z
	??$?8DU?$char_traits@D@std@@V?$allocator@D@1@@std@@YA_NABV?$basic_string@DU?$char_traits@D@std@@V?$allocator@D@2@@0@QBD@Z
	??$?9DU?$char_traits@D@std@@V?$allocator@D@1@@std@@YA_NABV?$basic_string@DU?$char_traits@D@std@@V?$allocator@D@2@@0@0@Z
	??$?9DU?$char_traits@D@std@@V?$allocator@D@1@@std@@YA_NABV?$basic_string@DU?$char_traits@D@std@@V?$allocator@D@2@@0@QBD@Z
	??$?HDU?$char_traits@D@std@@V?$allocator@D@1@@std@@YA?AV?$basic_string@DU?$char_traits@D@std@@V?$allocator@D@2@@0@$$QAV10@ABV10@@Z
	??$?HDU?$char_traits@D@std@@V?$allocator@D@1@@std@@YA?AV?$basic_string@DU?$char_traits@D@std@@V?$allocator@D@2@@0@$$QAV10@QBD@Z
	??$?HDU?$char_traits@D@std@@V?$allocator@D@1@@std@@YA?AV?$basic_string@DU?$char_traits@D@std@@V?$allocator@D@2@@0@ABV10@$$QAV10@@Z
	??$?HDU?$char_traits@D@std@@V?$allocator@D@1@@std@@YA?AV?$basic_string@DU?$char_traits@D@std@@V?$allocator@D@2@@0@ABV10@0@Z
	??$?HDU?$char_traits@D@std@@V?$allocator@D@1@@std@@YA?AV?$basic_string@DU?$char_traits@D@std@@V?$allocator@D@2@@0@ABV10@QBD@Z
	??$?HDU?$char_traits@D@std@@V?$allocator@D@1@@std@@YA?AV?$basic_string@DU?$char_traits@D@std@@V?$allocator@D@2@@0@QBDABV10@@Z
	??$?MDU?$char_traits@D@std@@V?$allocator@D@1@@std@@YA_NABV?$basic_string@DU?$char_traits@D@std@@V?$allocator@D@2@@0@0@Z
	??$_Allocate@$07U_Default_allocate_traits@std@@$0A@@std@@YAPAXI@Z
	??$_Allocate_manually_vector_aligned@U_Default_allocate_traits@std@@@std@@YAPAXI@Z
	??$_Const_cast@$$CBV?$basic_string@DU?$char_traits@D@std@@V?$allocator@D@2@@std@@@std@@YAPAV?$basic_string@DU?$char_traits@D@std@@V?$allocator@D@2@@0@PBV10@@Z
	??$_Const_cast@$$CBVZipEntry@zipper@@@std@@YAPAVZipEntry@zipper@@PBV12@@Z
	??$_Construct_in_place@PADABQAD@std@@YAXAAPADABQAD@Z
	??$_Construct_in_place@PAU?$_Tree_node@U?$pair@$$CBV?$basic_string@DU?$char_traits@D@std@@V?$allocator@D@2@@std@@V12@@std@@PAX@std@@ABQAU12@@std@@YAXAAPAU?$_Tree_node@U?$pair@$$CBV?$basic_string@DU?$char_traits@D@std@@V?$allocator@D@2@@std@@V12@@std@@PAX@0@ABQAU10@@Z
	??$_Copy_backward_memmove@PAEPAE@std@@YAPAEPAE00@Z
	??$_Copy_memmove@PADPAD@std@@YAPADPAD00@Z
	??$_Copy_memmove@PADPAE@std@@YAPAEPAD0PAE@Z
	??$_Copy_memmove@PAEPAE@std@@YAPAEPAE00@Z
	??$_Deallocate@$07$0A@@std@@YAXPAXI@Z
	??$_Destroy_in_place@PAD@std@@YAXAAPAD@Z
	??$_Destroy_in_place@PAU?$_Tree_node@U?$pair@$$CBV?$basic_string@DU?$char_traits@D@std@@V?$allocator@D@2@@std@@V12@@std@@PAX@std@@@std@@YAXAAPAU?$_Tree_node@U?$pair@$$CBV?$basic_string@DU?$char_traits@D@std@@V?$allocator@D@2@@std@@V12@@std@@PAX@0@@Z
	??$_Destroy_range@V?$allocator@D@std@@@std@@YAXPADQADAAV?$allocator@D@0@@Z
	??$_Destroy_range@V?$allocator@E@std@@@std@@YAXPAEQAEAAV?$allocator@E@0@@Z
	??$_Destroy_range@V?$allocator@V?$basic_string@DU?$char_traits@D@std@@V?$allocator@D@2@@std@@@std@@@std@@YAXPAV?$basic_string@DU?$char_traits@D@std@@V?$allocator@D@2@@0@QAV10@AAV?$allocator@V?$basic_string@DU?$char_traits@D@std@@V?$allocator@D@2@@std@@@0@@Z
	??$_Destroy_range@V?$allocator@VZipEntry@zipper@@@std@@@std@@YAXPAVZipEntry@zipper@@QAV12@AAV?$allocator@VZipEntry@zipper@@@0@@Z
	??$_Emplace_reallocate@ABV?$basic_string@DU?$char_traits@D@std@@V?$allocator@D@2@@std@@@?$vector@V?$basic_string@DU?$char_traits@D@std@@V?$allocator@D@2@@std@@V?$allocator@V?$basic_string@DU?$char_traits@D@std@@V?$allocator@D@2@@std@@@2@@std@@QAEPAV?$basic_string@DU?$char_traits@D@std@@V?$allocator@D@2@@1@QAV21@ABV21@@Z
	??$_Emplace_reallocate@ABVZipEntry@zipper@@@?$vector@VZipEntry@zipper@@V?$allocator@VZipEntry@zipper@@@std@@@std@@QAEPAVZipEntry@zipper@@QAV23@ABV23@@Z
	??$_Emplace_reallocate@V?$basic_string@DU?$char_traits@D@std@@V?$allocator@D@2@@std@@@?$vector@V?$basic_string@DU?$char_traits@D@std@@V?$allocator@D@2@@std@@V?$allocator@V?$basic_string@DU?$char_traits@D@std@@V?$allocator@D@2@@std@@@2@@std@@QAEPAV?$basic_string@DU?$char_traits@D@std@@V?$allocator@D@2@@1@QAV21@$$QAV21@@Z
	??$_Erase_tree@V?$allocator@U?$_Tree_node@U?$pair@$$CBV?$basic_string@DU?$char_traits@D@std@@V?$allocator@D@2@@std@@V12@@std@@PAX@std@@@std@@@?$_Tree_val@U?$_Tree_simple_types@U?$pair@$$CBV?$basic_string@DU?$char_traits@D@std@@V?$allocator@D@2@@std@@V12@@std@@@std@@@std@@QAEXAAV?$allocator@U?$_Tree_node@U?$pair@$$CBV?$basic_string@DU?$char_traits@D@std@@V?$allocator@D@2@@std@@V12@@std@@PAX@std@@@1@PAU?$_Tree_node@U?$pair@$$CBV?$basic_string@DU?$char_traits@D@std@@V?$allocator@D@2@@std@@V12@@std@@PAX@1@@Z
	??$_Find_lower_bound@V?$basic_string@DU?$char_traits@D@std@@V?$allocator@D@2@@std@@@?$_Tree@V?$_Tmap_traits@V?$basic_string@DU?$char_traits@D@std@@V?$allocator@D@2@@std@@V12@U?$less@V?$basic_string@DU?$char_traits@D@std@@V?$allocator@D@2@@std@@@2@V?$allocator@U?$pair@$$CBV?$basic_string@DU?$char_traits@D@std@@V?$allocator@D@2@@std@@V12@@std@@@2@$0A@@std@@@std@@IBE?AU?$_Tree_find_result@PAU?$_Tree_node@U?$pair@$$CBV?$basic_string@DU?$char_traits@D@std@@V?$allocator@D@2@@std@@V12@@std@@PAX@std@@@1@ABV?$basic_string@DU?$char_traits@D@std@@V?$allocator@D@2@@1@@Z
	??$_Fputc@D@std@@YA_NDPAU_iobuf@@@Z
	??$_Insert_range@PAE@?$vector@EV?$allocator@E@std@@@std@@AAEXV?$_Vector_const_iterator@V?$_Vector_val@U?$_Simple_types@E@std@@@std@@@1@PAE1Uforward_iterator_tag@1@@Z
	??$_Insert_string@DU?$char_traits@D@std@@I@std@@YAAAV?$basic_ostream@DU?$char_traits@D@std@@@0@AAV10@QBDI@Z
	??$_Pocca@V?$allocator@D@std@@@std@@YAXAAV?$allocator@D@0@ABV10@@Z
	??$_Pocma@V?$allocator@D@std@@@std@@YAXAAV?$allocator@D@0@0@Z
	??$_Pocma@V?$allocator@V?$basic_string@DU?$char_traits@D@std@@V?$allocator@D@2@@std@@@std@@@std@@YAXAAV?$allocator@V?$basic_string@DU?$char_traits@D@std@@V?$allocator@D@2@@std@@@0@0@Z
	??$_Refancy@PAE$0A@@std@@YAPAEPAE@Z
	??$_Resize_reallocate@U_Value_init_tag@std@@@?$vector@DV?$allocator@D@std@@@std@@AAEXIABU_Value_init_tag@1@@Z
	??$_Resize_reallocate@U_Value_init_tag@std@@@?$vector@EV?$allocator@E@std@@@std@@AAEXIABU_Value_init_tag@1@@Z
	??$_Traits_compare@U?$char_traits@D@std@@@std@@YAHQBDI0I@Z
	??$_Traits_equal@U?$char_traits@D@std@@@std@@YA_NQBDI0I@Z
	??$_Traits_find@U?$char_traits@D@std@@@std@@YAIQBDII0I@Z
	??$_Traits_find_last_of@U?$char_traits@D@std@@@std@@YAIQBDII0IU?$integral_constant@_N$00@0@@Z
	??$_Unfancy_maybe_null@D@std@@YAPADPAD@Z
	??$_Unfancy_maybe_null@E@std@@YAPAEPAE@Z
	??$_Uninitialized_copy@PAEV?$allocator@E@std@@@std@@YAPAEQAE0PAEAAV?$allocator@E@0@@Z
	??$_Uninitialized_move@PADV?$allocator@D@std@@@std@@YAPADQAD0PADAAV?$allocator@D@0@@Z
	??$_Uninitialized_move@PAEV?$allocator@E@std@@@std@@YAPAEQAE0PAEAAV?$allocator@E@0@@Z
	??$_Uninitialized_move@PAV?$basic_string@DU?$char_traits@D@std@@V?$allocator@D@2@@std@@V?$allocator@V?$basic_string@DU?$char_traits@D@std@@V?$allocator@D@2@@std@@@2@@std@@YAPAV?$basic_string@DU?$char_traits@D@std@@V?$allocator@D@2@@0@QAV10@0PAV10@AAV?$allocator@V?$basic_string@DU?$char_traits@D@std@@V?$allocator@D@2@@std@@@0@@Z
	??$_Uninitialized_move@PAVZipEntry@zipper@@V?$allocator@VZipEntry@zipper@@@std@@@std@@YAPAVZipEntry@zipper@@QAV12@0PAV12@AAV?$allocator@VZipEntry@zipper@@@0@@Z
	??$_Uninitialized_value_construct_n@V?$allocator@D@std@@@std@@YAPADPADIAAV?$allocator@D@0@@Z
	??$_Uninitialized_value_construct_n@V?$allocator@E@std@@@std@@YAPAEPAEIAAV?$allocator@E@0@@Z
	??$_Zero_range@PAD@std@@YAPADQAD0@Z
	??$_Zero_range@PAE@std@@YAPAEQAE0@Z
	??$construct@VZipEntry@zipper@@ABV12@@?$_Default_allocator_traits@V?$allocator@VZipEntry@zipper@@@std@@@std@@SAXAAV?$allocator@VZipEntry@zipper@@@1@QAVZipEntry@zipper@@ABV34@@Z
	??$use_facet@V?$codecvt@DDU_Mbstatet@@@std@@@std@@YAABV?$codecvt@DDU_Mbstatet@@@0@ABVlocale@0@@Z
	??0?$basic_ifstream@DU?$char_traits@D@std@@@std@@QAE@PBDHH@Z
	??0?$basic_ofstream@DU?$char_traits@D@std@@@std@@QAE@PBDHH@Z
	??0?$basic_string@DU?$char_traits@D@std@@V?$allocator@D@2@@std@@QAE@ABV01@@Z
	??0?$basic_string@DU?$char_traits@D@std@@V?$allocator@D@2@@std@@QAE@U_String_constructor_concat_tag@1@ABV01@QBDI2I@Z
	??0?$basic_stringstream@DU?$char_traits@D@std@@V?$allocator@D@2@@std@@QAE@XZ
	??0Unzipper@zipper@@QAE@AAV?$basic_istream@DU?$char_traits@D@std@@@std@@ABV?$basic_string@DU?$char_traits@D@std@@V?$allocator@D@2@@3@@Z
	??0Unzipper@zipper@@QAE@AAV?$vector@EV?$allocator@E@std@@@std@@ABV?$basic_string@DU?$char_traits@D@std@@V?$allocator@D@2@@3@@Z
	??0Unzipper@zipper@@QAE@ABV?$basic_string@DU?$char_traits@D@std@@V?$allocator@D@2@@std@@0@Z
	??0ZipEntry@zipper@@QAE@ABV?$basic_string@DU?$char_traits@D@std@@V?$allocator@D@2@@std@@_K1IIIIIIK@Z
	??0Zipper@zipper@@QAE@AAV?$basic_iostream@DU?$char_traits@D@std@@@std@@ABV?$basic_string@DU?$char_traits@D@std@@V?$allocator@D@2@@3@@Z
	??0Zipper@zipper@@QAE@AAV?$vector@EV?$allocator@E@std@@@std@@ABV?$basic_string@DU?$char_traits@D@std@@V?$allocator@D@2@@3@@Z
	??0Zipper@zipper@@QAE@ABV?$basic_string@DU?$char_traits@D@std@@V?$allocator@D@2@@std@@0@Z
	??0bad_alloc@std@@QAE@ABV01@@Z
	??0bad_array_new_length@std@@QAE@ABV01@@Z
	??0bad_array_new_length@std@@QAE@XZ
	??0bad_cast@std@@QAE@ABV01@@Z
	??0bad_cast@std@@QAE@XZ
	??0exception@std@@QAE@ABV01@@Z
	??0runtime_error@std@@QAE@ABV01@@Z
	??0runtime_error@std@@QAE@PBD@Z
	??0sentry@?$basic_ostream@DU?$char_traits@D@std@@@std@@QAE@AAV12@@Z
	??1?$basic_filebuf@DU?$char_traits@D@std@@@std@@UAE@XZ
	??1?$basic_ifstream@DU?$char_traits@D@std@@@std@@UAE@XZ
	??1?$basic_ofstream@DU?$char_traits@D@std@@@std@@UAE@XZ
	??1?$basic_string@DU?$char_traits@D@std@@V?$allocator@D@2@@std@@QAE@XZ
	??1?$basic_stringbuf@DU?$char_traits@D@std@@V?$allocator@D@2@@std@@UAE@XZ
	??1?$basic_stringstream@DU?$char_traits@D@std@@V?$allocator@D@2@@std@@UAE@XZ
	??1?$map@V?$basic_string@DU?$char_traits@D@std@@V?$allocator@D@2@@std@@V12@U?$less@V?$basic_string@DU?$char_traits@D@std@@V?$allocator@D@2@@std@@@2@V?$allocator@U?$pair@$$CBV?$basic_string@DU?$char_traits@D@std@@V?$allocator@D@2@@std@@V12@@std@@@2@@std@@QAE@XZ
	??1?$unique_ptr@V_Facet_base@std@@U?$default_delete@V_Facet_base@std@@@2@@std@@QAE@XZ
	??1?$vector@DV?$allocator@D@std@@@std@@QAE@XZ
	??1?$vector@EV?$allocator@E@std@@@std@@QAE@XZ
	??1?$vector@V?$basic_string@DU?$char_traits@D@std@@V?$allocator@D@2@@std@@V?$allocator@V?$basic_string@DU?$char_traits@D@std@@V?$allocator@D@2@@std@@@2@@std@@QAE@XZ
	??1?$vector@VZipEntry@zipper@@V?$allocator@VZipEntry@zipper@@@std@@@std@@QAE@XZ
	??1Unzipper@zipper@@QAE@XZ
	??1ZipEntry@zipper@@QAE@XZ
	??1Zipper@zipper@@QAE@XZ
	??1_Sentry_base@?$basic_ostream@DU?$char_traits@D@std@@@std@@QAE@XZ
	??1bad_array_new_length@std@@UAE@XZ
	??1bad_cast@std@@UAE@XZ
	??1exception@std@@UAE@XZ
	??1locale@std@@QAE@XZ
	??1runtime_error@std@@UAE@XZ
	??1sentry@?$basic_ostream@DU?$char_traits@D@std@@@std@@QAE@XZ
	??4?$basic_string@DU?$char_traits@D@std@@V?$allocator@D@2@@std@@QAEAAV01@$$QAV01@@Z
	??_D?$basic_ifstream@DU?$char_traits@D@std@@@std@@QAEXXZ
	??_D?$basic_ofstream@DU?$char_traits@D@std@@@std@@QAEXXZ
	??_D?$basic_stringstream@DU?$char_traits@D@std@@V?$allocator@D@2@@std@@QAEXXZ
	?_Change_array@?$vector@V?$basic_string@DU?$char_traits@D@std@@V?$allocator@D@2@@std@@V?$allocator@V?$basic_string@DU?$char_traits@D@std@@V?$allocator@D@2@@std@@@2@@std@@AAEXQAV?$basic_string@DU?$char_traits@D@std@@V?$allocator@D@2@@2@II@Z
	?_Destroy@?$vector@V?$basic_string@DU?$char_traits@D@std@@V?$allocator@D@2@@std@@V?$allocator@V?$basic_string@DU?$char_traits@D@std@@V?$allocator@D@2@@std@@@2@@std@@AAEXPAV?$basic_string@DU?$char_traits@D@std@@V?$allocator@D@2@@2@0@Z
	?_Destroy@?$vector@VZipEntry@zipper@@V?$allocator@VZipEntry@zipper@@@std@@@std@@AAEXPAVZipEntry@zipper@@0@Z
	?_Endwrite@?$basic_filebuf@DU?$char_traits@D@std@@@std@@IAE_NXZ
	?_Lock@?$basic_filebuf@DU?$char_traits@D@std@@@std@@UAEXXZ
	?_Reallocate_exactly@?$vector@EV?$allocator@E@std@@@std@@AAEXI@Z
	?_Reset_back@?$basic_filebuf@DU?$char_traits@D@std@@@std@@AAEXXZ
	?_Throw_bad_array_new_length@std@@YAXXZ
	?_Throw_bad_cast@std@@YAXXZ
	?_Unlock@?$basic_filebuf@DU?$char_traits@D@std@@@std@@UAEXXZ
	?_Xlen_string@std@@YAXXZ
	?_Xlength@?$vector@DV?$allocator@D@std@@@std@@CAXXZ
	?_Xlength@?$vector@EV?$allocator@E@std@@@std@@CAXXZ
	?_Xlength@?$vector@V?$basic_string@DU?$char_traits@D@std@@V?$allocator@D@2@@std@@V?$allocator@V?$basic_string@DU?$char_traits@D@std@@V?$allocator@D@2@@std@@@2@@std@@CAXXZ
	?_Xlength@?$vector@VZipEntry@zipper@@V?$allocator@VZipEntry@zipper@@@std@@@std@@CAXXZ
	?_Xran@?$_String_val@U?$_Simple_types@D@std@@@std@@SAXXZ
	?add@Impl@Zipper@zipper@@QAE_NAAV?$basic_istream@DU?$char_traits@D@std@@@std@@ABUtm@@ABV?$basic_string@DU?$char_traits@D@std@@V?$allocator@D@2@@5@2H@Z
	?add@Zipper@zipper@@QAE_NAAV?$basic_istream@DU?$char_traits@D@std@@@std@@ABUtm@@ABV?$basic_string@DU?$char_traits@D@std@@V?$allocator@D@2@@4@W4zipFlags@12@@Z
	?add@Zipper@zipper@@QAE_NAAV?$basic_istream@DU?$char_traits@D@std@@@std@@ABV?$basic_string@DU?$char_traits@D@std@@V?$allocator@D@2@@4@W4zipFlags@12@@Z
	?add@Zipper@zipper@@QAE_NABV?$basic_string@DU?$char_traits@D@std@@V?$allocator@D@2@@std@@W4zipFlags@12@@Z
	?append@?$basic_string@DU?$char_traits@D@std@@V?$allocator@D@2@@std@@QAEAAV12@QBDI@Z
	?assign@?$basic_string@DU?$char_traits@D@std@@V?$allocator@D@2@@std@@QAEAAV12@QBDI@Z
	?baseName@CDirEntry@zipper@@SA?AV?$basic_string@DU?$char_traits@D@std@@V?$allocator@D@2@@std@@ABV34@@Z
	?c_str@?$basic_string@DU?$char_traits@D@std@@V?$allocator@D@2@@std@@QBEPBDXZ
	?checkFileExists@zipper@@YA_NABV?$basic_string@DU?$char_traits@D@std@@V?$allocator@D@2@@std@@@Z
	?close@?$basic_filebuf@DU?$char_traits@D@std@@@std@@QAEPAV12@XZ
	?close@Impl@Zipper@zipper@@QAEXXZ
	?close@Unzipper@zipper@@QAEXXZ
	?close@Zipper@zipper@@QAEXXZ
	?compilePattern@CDirEntry@zipper@@SA?AV?$vector@V?$basic_string@DU?$char_traits@D@std@@V?$allocator@D@2@@std@@V?$allocator@V?$basic_string@DU?$char_traits@D@std@@V?$allocator@D@2@@std@@@2@@std@@ABV?$basic_string@DU?$char_traits@D@std@@V?$allocator@D@2@@4@@Z
	?createDir@CDirEntry@zipper@@SA_NABV?$basic_string@DU?$char_traits@D@std@@V?$allocator@D@2@@std@@0@Z
	?createTmpName@CDirEntry@zipper@@SA?AV?$basic_string@DU?$char_traits@D@std@@V?$allocator@D@2@@std@@ABV34@0@Z
	?currentEntryInfo@Impl@Unzipper@zipper@@AAE?AVZipEntry@3@XZ
	?currentPath@zipper@@YA?AV?$basic_string@DU?$char_traits@D@std@@V?$allocator@D@2@@std@@XZ
	?deallocate@?$allocator@V?$basic_string@DU?$char_traits@D@std@@V?$allocator@D@2@@std@@@std@@QAEXQAV?$basic_string@DU?$char_traits@D@std@@V?$allocator@D@2@@2@I@Z
	?deallocate@?$allocator@VZipEntry@zipper@@@std@@QAEXQAVZipEntry@zipper@@I@Z
	?dirName@CDirEntry@zipper@@SA?AV?$basic_string@DU?$char_traits@D@std@@V?$allocator@D@2@@std@@ABV34@@Z
	?entries@Unzipper@zipper@@QAE?AV?$vector@VZipEntry@zipper@@V?$allocator@VZipEntry@zipper@@@std@@@std@@XZ
	?exist@CDirEntry@zipper@@SA_NABV?$basic_string@DU?$char_traits@D@std@@V?$allocator@D@2@@std@@@Z
	?extract@Unzipper@zipper@@QAE_NABV?$basic_string@DU?$char_traits@D@std@@V?$allocator@D@2@@std@@@Z
	?extract@Unzipper@zipper@@QAE_NABV?$basic_string@DU?$char_traits@D@std@@V?$allocator@D@2@@std@@ABV?$map@V?$basic_string@DU?$char_traits@D@std@@V?$allocator@D@2@@std@@V12@U?$less@V?$basic_string@DU?$char_traits@D@std@@V?$allocator@D@2@@std@@@2@V?$allocator@U?$pair@$$CBV?$basic_string@DU?$char_traits@D@std@@V?$allocator@D@2@@std@@V12@@std@@@2@@4@@Z
	?extractAll@Impl@Unzipper@zipper@@QAE_NABV?$basic_string@DU?$char_traits@D@std@@V?$allocator@D@2@@std@@ABV?$map@V?$basic_string@DU?$char_traits@D@std@@V?$allocator@D@2@@std@@V12@U?$less@V?$basic_string@DU?$char_traits@D@std@@V?$allocator@D@2@@std@@@2@V?$allocator@U?$pair@$$CBV?$basic_string@DU?$char_traits@D@std@@V?$allocator@D@2@@std@@V12@@std@@@2@@5@@Z
	?extractCurrentEntryToFile@Impl@Unzipper@zipper@@QAE_NAAVZipEntry@3@ABV?$basic_string@DU?$char_traits@D@std@@V?$allocator@D@2@@std@@@Z
	?extractEntry@Impl@Unzipper@zipper@@QAE_NABV?$basic_string@DU?$char_traits@D@std@@V?$allocator@D@2@@std@@0@Z
	?extractEntry@Unzipper@zipper@@QAE_NABV?$basic_string@DU?$char_traits@D@std@@V?$allocator@D@2@@std@@0@Z
	?extractEntryToMemory@Unzipper@zipper@@QAE_NABV?$basic_string@DU?$char_traits@D@std@@V?$allocator@D@2@@std@@AAV?$vector@EV?$allocator@E@std@@@4@@Z
	?extractEntryToStream@Unzipper@zipper@@QAE_NABV?$basic_string@DU?$char_traits@D@std@@V?$allocator@D@2@@std@@AAV?$basic_ostream@DU?$char_traits@D@std@@@4@@Z
	?extractToFile@Impl@Unzipper@zipper@@QAEHABV?$basic_string@DU?$char_traits@D@std@@V?$allocator@D@2@@std@@AAVZipEntry@3@@Z
	?extractToMemory@Impl@Unzipper@zipper@@QAEHAAV?$vector@EV?$allocator@E@std@@@std@@AAVZipEntry@3@@Z
	?extractToStream@Impl@Unzipper@zipper@@QAEHAAV?$basic_ostream@DU?$char_traits@D@std@@@std@@AAVZipEntry@3@@Z
	?fileName@CDirEntry@zipper@@SA?AV?$basic_string@DU?$char_traits@D@std@@V?$allocator@D@2@@std@@ABV34@@Z
	?fileNameFromPath@zipper@@YA?AV?$basic_string@DU?$char_traits@D@std@@V?$allocator@D@2@@std@@ABV23@@Z
	?filesFromDirectory@zipper@@YA?AV?$vector@V?$basic_string@DU?$char_traits@D@std@@V?$allocator@D@2@@std@@V?$allocator@V?$basic_string@DU?$char_traits@D@std@@V?$allocator@D@2@@std@@@2@@std@@ABV?$basic_string@DU?$char_traits@D@std@@V?$allocator@D@2@@3@@Z
	?getEntries@Impl@Unzipper@zipper@@AAEXAAV?$vector@VZipEntry@zipper@@V?$allocator@VZipEntry@zipper@@@std@@@std@@@Z
	?getFileCrc@zipper@@YAXAAV?$basic_istream@DU?$char_traits@D@std@@@std@@AAV?$vector@DV?$allocator@D@std@@@3@AAK@Z
	?imbue@?$basic_filebuf@DU?$char_traits@D@std@@@std@@MAEXABVlocale@2@@Z
	?initFile@Impl@Zipper@zipper@@QAE_NABV?$basic_string@DU?$char_traits@D@std@@V?$allocator@D@2@@std@@@Z
	?initWithStream@Impl@Zipper@zipper@@QAE_NAAV?$basic_iostream@DU?$char_traits@D@std@@@std@@@Z
	?initWithVector@Impl@Zipper@zipper@@QAE_NAAV?$vector@EV?$allocator@E@std@@@std@@@Z
	?insert@?$basic_string@DU?$char_traits@D@std@@V?$allocator@D@2@@std@@QAEAAV12@IQBDI@Z
	?isDir@CDirEntry@zipper@@SA_NABV?$basic_string@DU?$char_traits@D@std@@V?$allocator@D@2@@std@@@Z
	?isDirectory@zipper@@YA_NABV?$basic_string@DU?$char_traits@D@std@@V?$allocator@D@2@@std@@@Z
	?isFile@CDirEntry@zipper@@SA_NABV?$basic_string@DU?$char_traits@D@std@@V?$allocator@D@2@@std@@@Z
	?isLargeFile@zipper@@YA_NAAV?$basic_istream@DU?$char_traits@D@std@@@std@@@Z
	?isReadable@CDirEntry@zipper@@SA_NABV?$basic_string@DU?$char_traits@D@std@@V?$allocator@D@2@@std@@@Z
	?isRelativePath@CDirEntry@zipper@@SA_NABV?$basic_string@DU?$char_traits@D@std@@V?$allocator@D@2@@std@@@Z
	?isWritable@CDirEntry@zipper@@SA_NABV?$basic_string@DU?$char_traits@D@std@@V?$allocator@D@2@@std@@@Z
	?makePathAbsolute@CDirEntry@zipper@@SA_NAAV?$basic_string@DU?$char_traits@D@std@@V?$allocator@D@2@@std@@ABV34@@Z
	?makePathRelative@CDirEntry@zipper@@SA_NAAV?$basic_string@DU?$char_traits@D@std@@V?$allocator@D@2@@std@@ABV34@@Z
	?makedir@zipper@@YA_NABV?$basic_string@DU?$char_traits@D@std@@V?$allocator@D@2@@std@@@Z
	?match@CDirEntry@zipper@@SA_NABV?$basic_string@DU?$char_traits@D@std@@V?$allocator@D@2@@std@@ABV?$vector@V?$basic_string@DU?$char_traits@D@std@@V?$allocator@D@2@@std@@V?$allocator@V?$basic_string@DU?$char_traits@D@std@@V?$allocator@D@2@@std@@@2@@4@@Z
	?matchInternal@CDirEntry@zipper@@CA_NABV?$basic_string@DU?$char_traits@D@std@@V?$allocator@D@2@@std@@V34@AAI2@Z
	?move@CDirEntry@zipper@@SA_NABV?$basic_string@DU?$char_traits@D@std@@V?$allocator@D@2@@std@@0@Z
	?normalize@CDirEntry@zipper@@SA?AV?$basic_string@DU?$char_traits@D@std@@V?$allocator@D@2@@std@@ABV34@@Z
	?open@?$basic_filebuf@DU?$char_traits@D@std@@@std@@QAEPAV12@PBDHH@Z
	?open@Zipper@zipper@@QAEXXZ
	?overflow@?$basic_filebuf@DU?$char_traits@D@std@@@std@@MAEHH@Z
	?overflow@?$basic_stringbuf@DU?$char_traits@D@std@@V?$allocator@D@2@@std@@MAEHH@Z
	?parentDirectory@zipper@@YA?AV?$basic_string@DU?$char_traits@D@std@@V?$allocator@D@2@@std@@ABV23@@Z
	?pbackfail@?$basic_filebuf@DU?$char_traits@D@std@@@std@@MAEHH@Z
	?pbackfail@?$basic_stringbuf@DU?$char_traits@D@std@@V?$allocator@D@2@@std@@MAEHH@Z
	?release@Unzipper@zipper@@AAEXXZ
	?release@Zipper@zipper@@AAEXXZ
	?remove@CDirEntry@zipper@@SA_NABV?$basic_string@DU?$char_traits@D@std@@V?$allocator@D@2@@std@@@Z
	?removeFiles@CDirEntry@zipper@@SA_NABV?$basic_string@DU?$char_traits@D@std@@V?$allocator@D@2@@std@@0@Z
	?removeFolder@zipper@@YAXABV?$basic_string@DU?$char_traits@D@std@@V?$allocator@D@2@@std@@@Z
	?seekoff@?$basic_filebuf@DU?$char_traits@D@std@@@std@@MAE?AV?$fpos@U_Mbstatet@@@2@_JHH@Z
	?seekoff@?$basic_stringbuf@DU?$char_traits@D@std@@V?$allocator@D@2@@std@@MAE?AV?$fpos@U_Mbstatet@@@2@_JHH@Z
	?seekpos@?$basic_filebuf@DU?$char_traits@D@std@@@std@@MAE?AV?$fpos@U_Mbstatet@@@2@V32@H@Z
	?seekpos@?$basic_stringbuf@DU?$char_traits@D@std@@V?$allocator@D@2@@std@@MAE?AV?$fpos@U_Mbstatet@@@2@V32@H@Z
	?setbuf@?$basic_filebuf@DU?$char_traits@D@std@@@std@@MAEPAV?$basic_streambuf@DU?$char_traits@D@std@@@2@PAD_J@Z
	?str@?$basic_stringstream@DU?$char_traits@D@std@@V?$allocator@D@2@@std@@QBE?AV?$basic_string@DU?$char_traits@D@std@@V?$allocator@D@2@@2@XZ
	?substr@?$basic_string@DU?$char_traits@D@std@@V?$allocator@D@2@@std@@QBE?AV12@II@Z
	?suffix@CDirEntry@zipper@@SA?AV?$basic_string@DU?$char_traits@D@std@@V?$allocator@D@2@@std@@ABV34@@Z
	?sync@?$basic_filebuf@DU?$char_traits@D@std@@@std@@MAEHXZ
	?uflow@?$basic_filebuf@DU?$char_traits@D@std@@@std@@MAEHXZ
	?underflow@?$basic_filebuf@DU?$char_traits@D@std@@@std@@MAEHXZ
	?underflow@?$basic_stringbuf@DU?$char_traits@D@std@@V?$allocator@D@2@@std@@MAEHXZ
	?what@exception@std@@UBEPBDXZ
	?xsgetn@?$basic_filebuf@DU?$char_traits@D@std@@@std@@MAE_JPAD_J@Z
	?xsputn@?$basic_filebuf@DU?$char_traits@D@std@@@std@@MAE_JPBD_J@Z
	__local_stdio_printf_options
	_cprintf
	_snprintf
	_snwprintf
	aes_decrypt
	aes_decrypt_key
	aes_decrypt_key128
	aes_decrypt_key192
	aes_decrypt_key256
	aes_encrypt
	aes_encrypt_key
	aes_encrypt_key128
	aes_encrypt_key192
	aes_encrypt_key256
	aes_init
	call_zopen64
	call_zopendisk64
	call_zseek64
	call_ztell64
	closedir
	derive_key
	entropy_fun
	fclose_buf_func
	fclose_mem_func
	fcrypt_decrypt
	fcrypt_encrypt
	fcrypt_end
	fcrypt_init
	ferror_buf_func
	ferror_mem_func
	fflush_buf
	fill_buffer_filefunc
	fill_buffer_filefunc64
	fill_fopen64_filefunc
	fill_fopen_filefunc
	fill_memory_filefunc
	fill_win32_filefunc
	fill_win32_filefunc64
	fill_win32_filefunc64A
	fill_win32_filefunc64W
	fill_zlib_filefunc64_32_def_from_filefunc32
	fopen64_buf_func
	fopen_buf_func
	fopen_buf_internal_func
	fopen_mem_func
	fopendisk64_buf_func
	fopendisk_buf_func
	fopendisk_mem_func
	fread_buf_func
	fread_mem_func
	fseek64_buf_func
	fseek_buf_func
	fseek_buf_internal_func
	fseek_mem_func
	ftell64_buf_func
	ftell_buf_func
	ftell_buf_internal_func
	ftell_mem_func
	fwrite_buf_func
	fwrite_mem_func
	hmac_sha
	hmac_sha_begin
	hmac_sha_data
	hmac_sha_end
	hmac_sha_key
	is_via_cpu
	opendir
	print_buf_internal
	prng_end
	prng_init
	prng_rand
	read_via_flags
	readdir
	rewinddir
	sha1
	sha1_begin
	sha1_compile
	sha1_end
	sha1_hash
	unzClose
	unzCloseCurrentFile
	unzGetCurrentFileInfo
	unzGetCurrentFileInfo64
	unzGetCurrentFileZStreamPos64
	unzGetFilePos
	unzGetFilePos64
	unzGetGlobalComment
	unzGetGlobalInfo
	unzGetGlobalInfo64
	unzGetLocalExtrafield
	unzGetOffset
	unzGetOffset64
	unzGoToFilePos
	unzGoToFilePos64
	unzGoToFirstFile
	unzGoToFirstFile2
	unzGoToNextFile
	unzGoToNextFile2
	unzLocateFile
	unzOpen
	unzOpen2
	unzOpen2_64
	unzOpen64
	unzOpenCurrentFile
	unzOpenCurrentFile2
	unzOpenCurrentFile3
	unzOpenCurrentFilePassword
	unzReadCurrentFile
	unzSetOffset
	unzSetOffset64
	unzeof
	unzseek
	unzseek64
	unztell
	unztell64
	via_ace_test
	win32_close_file_func
	win32_error_file_func
	win32_open64_file_func
	win32_open64_file_funcA
	win32_open64_file_funcW
	win32_open_file_func
	win32_opendisk64_file_func
	win32_opendisk64_file_funcA
	win32_opendisk64_file_funcW
	win32_opendisk_file_func
	win32_read_file_func
	win32_seek64_file_func
	win32_seek_file_func
	win32_tell64_file_func
	win32_tell_file_func
	win32_write_file_func
	zipClose
	zipClose2_64
	zipCloseFileInZip
	zipCloseFileInZipRaw
	zipCloseFileInZipRaw64
	zipClose_64
	zipOpen
	zipOpen2
	zipOpen2_64
	zipOpen3
	zipOpen3_64
	zipOpen4
	zipOpen64
	zipOpenNewFileInZip
	zipOpenNewFileInZip2
	zipOpenNewFileInZip2_64
	zipOpenNewFileInZip3
	zipOpenNewFileInZip3_64
	zipOpenNewFileInZip4
	zipOpenNewFileInZip4_64
	zipOpenNewFileInZip64
	zipWriteInFileInZip
